; Function Attrs: mustprogress uwtable
define dso_local void @_Z8RunTestsRKSt6vectorISt8functionIFvvEESaIS2_EEm(ptr noundef nonnull readonly align 8 captures(none) dereferenceable(24) %0, i64 noundef %1) #3 personality ptr @__gxx_personality_v0 {
  %3 = tail call i64 @pthread_self() #27
  %4 = tail call noundef nonnull align 8 dereferenceable(8) ptr @_ZStlsISt11char_traitsIcEERSt13basic_ostreamIcT_ES5_PKc(ptr noundef nonnull align 8 dereferenceable(8) @_ZSt4cout, ptr noundef nonnull @.str)
  %5 = tail call noundef nonnull align 8 dereferenceable(8) ptr @_ZNSolsEm(ptr noundef nonnull align 8 dereferenceable(8) %4, i64 noundef %1)
  %6 = tail call noundef nonnull align 8 dereferenceable(8) ptr @_ZStlsISt11char_traitsIcEERSt13basic_ostreamIcT_ES5_PKc(ptr noundef nonnull align 8 dereferenceable(8) %5, ptr noundef nonnull @.str.1)
  %7 = icmp eq i64 %3, 0
  br i1 %7, label %8, label %10

8:                                                ; preds = %2
  %9 = tail call noundef nonnull align 8 dereferenceable(8) ptr @_ZStlsISt11char_traitsIcEERSt13basic_ostreamIcT_ES5_PKc(ptr noundef nonnull align 8 dereferenceable(8) %6, ptr noundef nonnull @.str.17)
  br label %_ZStlsIcSt11char_traitsIcEERSt13basic_ostreamIT_T0_ES6_NSt6thread2idE.exit

10:                                               ; preds = %2
  %11 = tail call noundef nonnull align 8 dereferenceable(8) ptr @_ZNSolsEm(ptr noundef nonnull align 8 dereferenceable(8) %6, i64 noundef %3)
  br label %_ZStlsIcSt11char_traitsIcEERSt13basic_ostreamIT_T0_ES6_NSt6thread2idE.exit

_ZStlsIcSt11char_traitsIcEERSt13basic_ostreamIT_T0_ES6_NSt6thread2idE.exit: ; preds = %8, %10
  %.0.i = phi ptr [ %9, %8 ], [ %11, %10 ]
  %12 = tail call noundef nonnull align 8 dereferenceable(8) ptr @_ZNSolsEPFRSoS_E(ptr noundef nonnull align 8 dereferenceable(8) %.0.i, ptr noundef nonnull @_ZSt4endlIcSt11char_traitsIcEERSt13basic_ostreamIT_T0_ES6_)
  %.not = icmp eq i64 %1, 0
  br i1 %.not, label %._crit_edge, label %.lr.ph

.lr.ph:                                           ; preds = %_ZStlsIcSt11char_traitsIcEERSt13basic_ostreamIT_T0_ES6_NSt6thread2idE.exit
  %13 = getelementptr inbounds nuw i8, ptr %0, i64 8
  br label %14

14:                                               ; preds = %.lr.ph, %_ZNKSt8functionIFvvEEclEv.exit
  %.011 = phi i64 [ 0, %.lr.ph ], [ %28, %_ZNKSt8functionIFvvEEclEv.exit ]
  %15 = load ptr, ptr %13, align 8
  %16 = load ptr, ptr %0, align 8
  %17 = ptrtoint ptr %15 to i64
  %18 = ptrtoint ptr %16 to i64
  %19 = sub i64 %17, %18
  %20 = ashr exact i64 %19, 5
  %21 = urem i64 %.011, %20
  %22 = getelementptr inbounds %"class.std::function", ptr %16, i64 %21
  %23 = getelementptr inbounds nuw i8, ptr %22, i64 16
  %24 = load ptr, ptr %23, align 8
  %.not.i.i = icmp eq ptr %24, null
  br i1 %.not.i.i, label %25, label %_ZNKSt8functionIFvvEEclEv.exit

25:                                               ; preds = %14
  tail call void @_ZSt25__throw_bad_function_callv() #26
  unreachable

_ZNKSt8functionIFvvEEclEv.exit:                   ; preds = %14
  %26 = getelementptr inbounds nuw i8, ptr %22, i64 24
  %27 = load ptr, ptr %26, align 8
  tail call void %27(ptr noundef nonnull align 8 dereferenceable(32) %22)
  %28 = add nuw i64 %.011, 1
  %exitcond.not = icmp eq i64 %28, %1
  br i1 %exitcond.not, label %._crit_edge, label %14, !llvm.loop !29

._crit_edge:                                      ; preds = %_ZNKSt8functionIFvvEEclEv.exit, %_ZStlsIcSt11char_traitsIcEERSt13basic_ostreamIT_T0_ES6_NSt6thread2idE.exit
  %29 = tail call noundef nonnull align 8 dereferenceable(8) ptr @_ZStlsISt11char_traitsIcEERSt13basic_ostreamIcT_ES5_PKc(ptr noundef nonnull align 8 dereferenceable(8) @_ZSt4cout, ptr noundef nonnull @.str.2)
  br i1 %7, label %30, label %32

30:                                               ; preds = %._crit_edge
  %31 = tail call noundef nonnull align 8 dereferenceable(8) ptr @_ZStlsISt11char_traitsIcEERSt13basic_ostreamIcT_ES5_PKc(ptr noundef nonnull align 8 dereferenceable(8) %29, ptr noundef nonnull @.str.17)
  br label %_ZStlsIcSt11char_traitsIcEERSt13basic_ostreamIT_T0_ES6_NSt6thread2idE.exit10

32:                                               ; preds = %._crit_edge
  %33 = tail call noundef nonnull align 8 dereferenceable(8) ptr @_ZNSolsEm(ptr noundef nonnull align 8 dereferenceable(8) %29, i64 noundef %3)
  br label %_ZStlsIcSt11char_traitsIcEERSt13basic_ostreamIT_T0_ES6_NSt6thread2idE.exit10

_ZStlsIcSt11char_traitsIcEERSt13basic_ostreamIT_T0_ES6_NSt6thread2idE.exit10: ; preds = %30, %32
  %.0.i9 = phi ptr [ %31, %30 ], [ %33, %32 ]
  %34 = tail call noundef nonnull align 8 dereferenceable(8) ptr @_ZNSolsEPFRSoS_E(ptr noundef nonnull align 8 dereferenceable(8) %.0.i9, ptr noundef nonnull @_ZSt4endlIcSt11char_traitsIcEERSt13basic_ostreamIT_T0_ES6_)
  ret void
}